; Function Attrs: nounwind uwtable
define void @Gia_IsoAssignUnique(ptr noundef captures(none) initializes((16, 20)) %0) local_unnamed_addr #8 {
  %2 = getelementptr inbounds nuw i8, ptr %0, i64 16
  store i32 0, ptr %2, align 8, !tbaa !49
  %3 = getelementptr inbounds nuw i8, ptr %0, i64 72
  %4 = load ptr, ptr %3, align 8, !tbaa !41
  %5 = getelementptr inbounds nuw i8, ptr %4, i64 4
  store i32 0, ptr %5, align 4, !tbaa !37
  %6 = getelementptr inbounds nuw i8, ptr %0, i64 64
  %7 = load ptr, ptr %6, align 8, !tbaa !40
  %8 = getelementptr i8, ptr %7, i64 4
  %.val38 = load i32, ptr %8, align 4, !tbaa !37
  %9 = icmp sgt i32 %.val38, 1
  br i1 %9, label %.lr.ph, label %.critedge

.lr.ph:                                           ; preds = %1
  %10 = getelementptr inbounds nuw i8, ptr %0, i64 12
  %11 = getelementptr inbounds nuw i8, ptr %0, i64 32
  %12 = getelementptr i8, ptr %0, i64 40
  br label %13

13:                                               ; preds = %.lr.ph, %98
  %14 = phi ptr [ %7, %.lr.ph ], [ %99, %98 ]
  %indvars.iv = phi i64 [ 0, %.lr.ph ], [ %indvars.iv.next, %98 ]
  %15 = or disjoint i64 %indvars.iv, 1
  %16 = getelementptr i8, ptr %14, i64 8
  %.val28 = load ptr, ptr %16, align 8, !tbaa !39
  %17 = getelementptr inbounds nuw i32, ptr %.val28, i64 %indvars.iv
  %18 = load i32, ptr %17, align 4, !tbaa !43
  %19 = getelementptr inbounds nuw i32, ptr %.val28, i64 %15
  %20 = load i32, ptr %19, align 4, !tbaa !43
  %21 = icmp eq i32 %20, 1
  br i1 %21, label %22, label %33

22:                                               ; preds = %13
  %23 = load i32, ptr %10, align 4, !tbaa !32
  %24 = add nsw i32 %23, 1
  store i32 %24, ptr %10, align 4, !tbaa !32
  %25 = load ptr, ptr %11, align 8, !tbaa !35
  %.val29 = load ptr, ptr %12, align 8, !tbaa !36
  %26 = sext i32 %18 to i64
  %27 = getelementptr inbounds i64, ptr %.val29, i64 %26
  %28 = load i64, ptr %27, align 8, !tbaa !60
  %29 = lshr i64 %28, 32
  %30 = getelementptr inbounds nuw i32, ptr %25, i64 %29
  store i32 %23, ptr %30, align 4, !tbaa !43
  %31 = load i32, ptr %2, align 8, !tbaa !49
  %32 = add nsw i32 %31, 1
  store i32 %32, ptr %2, align 8, !tbaa !49
  br label %98

33:                                               ; preds = %13
  %34 = load ptr, ptr %3, align 8, !tbaa !41
  %35 = getelementptr inbounds nuw i8, ptr %34, i64 4
  %36 = load i32, ptr %35, align 4, !tbaa !37
  %37 = load i32, ptr %34, align 8, !tbaa !38
  %38 = icmp eq i32 %36, %37
  br i1 %38, label %39, label %.Vec_IntGrow.exit10_crit_edge.i

.Vec_IntGrow.exit10_crit_edge.i:                  ; preds = %33
  %.phi.trans.insert.i = getelementptr inbounds nuw i8, ptr %34, i64 8
  %.pre.i = load ptr, ptr %.phi.trans.insert.i, align 8, !tbaa !39
  br label %Vec_IntPush.exit

39:                                               ; preds = %33
  %40 = icmp slt i32 %36, 16
  br i1 %40, label %41, label %49

41:                                               ; preds = %39
  %42 = getelementptr inbounds nuw i8, ptr %34, i64 8
  %43 = load ptr, ptr %42, align 8, !tbaa !39
  %.not9.i.i = icmp eq ptr %43, null
  br i1 %.not9.i.i, label %46, label %44

44:                                               ; preds = %41
  %45 = tail call dereferenceable_or_null(64) ptr @realloc(ptr noundef nonnull %43, i64 noundef 64) #27
  br label %Vec_IntGrow.exit.i

46:                                               ; preds = %41
  %47 = tail call noalias dereferenceable_or_null(64) ptr @malloc(i64 noundef 64) #25
  br label %Vec_IntGrow.exit.i

Vec_IntGrow.exit.i:                               ; preds = %46, %44
  %48 = phi ptr [ %45, %44 ], [ %47, %46 ]
  store ptr %48, ptr %42, align 8, !tbaa !39
  store i32 16, ptr %34, align 8, !tbaa !38
  br label %Vec_IntPush.exit

49:                                               ; preds = %39
  %50 = shl nuw nsw i32 %36, 1
  %51 = getelementptr inbounds nuw i8, ptr %34, i64 8
  %52 = load ptr, ptr %51, align 8, !tbaa !39
  %.not9.i9.i = icmp eq ptr %52, null
  %53 = zext nneg i32 %50 to i64
  %54 = shl nuw nsw i64 %53, 2
  br i1 %.not9.i9.i, label %57, label %55

55:                                               ; preds = %49
  %56 = tail call ptr @realloc(ptr noundef nonnull %52, i64 noundef %54) #27
  br label %59

57:                                               ; preds = %49
  %58 = tail call noalias ptr @malloc(i64 noundef %54) #25
  br label %59

59:                                               ; preds = %57, %55
  %60 = phi ptr [ %56, %55 ], [ %58, %57 ]
  store ptr %60, ptr %51, align 8, !tbaa !39
  store i32 %50, ptr %34, align 8, !tbaa !38
  br label %Vec_IntPush.exit

Vec_IntPush.exit:                                 ; preds = %.Vec_IntGrow.exit10_crit_edge.i, %Vec_IntGrow.exit.i, %59
  %61 = phi ptr [ %.pre.i, %.Vec_IntGrow.exit10_crit_edge.i ], [ %60, %59 ], [ %48, %Vec_IntGrow.exit.i ]
  %62 = load i32, ptr %35, align 4, !tbaa !37
  %63 = add nsw i32 %62, 1
  store i32 %63, ptr %35, align 4, !tbaa !37
  %64 = sext i32 %62 to i64
  %65 = getelementptr inbounds i32, ptr %61, i64 %64
  store i32 %18, ptr %65, align 4, !tbaa !43
  %66 = load ptr, ptr %3, align 8, !tbaa !41
  %67 = getelementptr inbounds nuw i8, ptr %66, i64 4
  %68 = load i32, ptr %67, align 4, !tbaa !37
  %69 = load i32, ptr %66, align 8, !tbaa !38
  %70 = icmp eq i32 %68, %69
  br i1 %70, label %71, label %.Vec_IntGrow.exit10_crit_edge.i30

.Vec_IntGrow.exit10_crit_edge.i30:                ; preds = %Vec_IntPush.exit
  %.phi.trans.insert.i31 = getelementptr inbounds nuw i8, ptr %66, i64 8
  %.pre.i32 = load ptr, ptr %.phi.trans.insert.i31, align 8, !tbaa !39
  br label %Vec_IntPush.exit36

71:                                               ; preds = %Vec_IntPush.exit
  %72 = icmp slt i32 %68, 16
  br i1 %72, label %73, label %81

73:                                               ; preds = %71
  %74 = getelementptr inbounds nuw i8, ptr %66, i64 8
  %75 = load ptr, ptr %74, align 8, !tbaa !39
  %.not9.i.i34 = icmp eq ptr %75, null
  br i1 %.not9.i.i34, label %78, label %76

76:                                               ; preds = %73
  %77 = tail call dereferenceable_or_null(64) ptr @realloc(ptr noundef nonnull %75, i64 noundef 64) #27
  br label %Vec_IntGrow.exit.i35

78:                                               ; preds = %73
  %79 = tail call noalias dereferenceable_or_null(64) ptr @malloc(i64 noundef 64) #25
  br label %Vec_IntGrow.exit.i35

Vec_IntGrow.exit.i35:                             ; preds = %78, %76
  %80 = phi ptr [ %77, %76 ], [ %79, %78 ]
  store ptr %80, ptr %74, align 8, !tbaa !39
  store i32 16, ptr %66, align 8, !tbaa !38
  br label %Vec_IntPush.exit36

81:                                               ; preds = %71
  %82 = shl nuw nsw i32 %68, 1
  %83 = getelementptr inbounds nuw i8, ptr %66, i64 8
  %84 = load ptr, ptr %83, align 8, !tbaa !39
  %.not9.i9.i33 = icmp eq ptr %84, null
  %85 = zext nneg i32 %82 to i64
  %86 = shl nuw nsw i64 %85, 2
  br i1 %.not9.i9.i33, label %89, label %87

87:                                               ; preds = %81
  %88 = tail call ptr @realloc(ptr noundef nonnull %84, i64 noundef %86) #27
  br label %91

89:                                               ; preds = %81
  %90 = tail call noalias ptr @malloc(i64 noundef %86) #25
  br label %91

91:                                               ; preds = %89, %87
  %92 = phi ptr [ %88, %87 ], [ %90, %89 ]
  store ptr %92, ptr %83, align 8, !tbaa !39
  store i32 %82, ptr %66, align 8, !tbaa !38
  br label %Vec_IntPush.exit36

Vec_IntPush.exit36:                               ; preds = %.Vec_IntGrow.exit10_crit_edge.i30, %Vec_IntGrow.exit.i35, %91
  %93 = phi ptr [ %.pre.i32, %.Vec_IntGrow.exit10_crit_edge.i30 ], [ %92, %91 ], [ %80, %Vec_IntGrow.exit.i35 ]
  %94 = load i32, ptr %67, align 4, !tbaa !37
  %95 = add nsw i32 %94, 1
  store i32 %95, ptr %67, align 4, !tbaa !37
  %96 = sext i32 %94 to i64
  %97 = getelementptr inbounds i32, ptr %93, i64 %96
  store i32 %20, ptr %97, align 4, !tbaa !43
  %.pre = load ptr, ptr %6, align 8, !tbaa !40
  br label %98

98:                                               ; preds = %22, %Vec_IntPush.exit36
  %99 = phi ptr [ %14, %22 ], [ %.pre, %Vec_IntPush.exit36 ]
  %indvars.iv.next = add nuw nsw i64 %indvars.iv, 2
  %100 = getelementptr i8, ptr %99, i64 4
  %.val = load i32, ptr %100, align 4, !tbaa !37
  %101 = trunc i64 %indvars.iv.next to i32
  %102 = or disjoint i32 %101, 1
  %103 = icmp slt i32 %102, %.val
  br i1 %103, label %13, label %.critedge.loopexit, !llvm.loop !61

.critedge.loopexit:                               ; preds = %98
  %.pre42 = load ptr, ptr %3, align 8, !tbaa !41
  %.pre43 = load i32, ptr %2, align 8, !tbaa !49
  br label %.critedge

.critedge:                                        ; preds = %.critedge.loopexit, %1
  %104 = phi i32 [ 0, %1 ], [ %.pre43, %.critedge.loopexit ]
  %105 = phi ptr [ %4, %1 ], [ %.pre42, %.critedge.loopexit ]
  %.lcssa = phi ptr [ %7, %1 ], [ %99, %.critedge.loopexit ]
  store ptr %105, ptr %6, align 8, !tbaa !40
  store ptr %.lcssa, ptr %3, align 8, !tbaa !41
  %106 = getelementptr inbounds nuw i8, ptr %0, i64 20
  %107 = load i32, ptr %106, align 4, !tbaa !33
  %108 = sub nsw i32 %107, %104
  store i32 %108, ptr %106, align 4, !tbaa !33
  ret void
}